	.file	"cb1.c"
	.text
.Ltext0:
	.globl	main
	.type	main, @function
main:
.LFB0:
	.file 1 "cb1.c"
	.loc 1 6 0
	.cfi_startproc
	pushq	%rbp
	.cfi_def_cfa_offset 16
	.cfi_offset 6, -16
	movq	%rsp, %rbp
	.cfi_def_cfa_register 6
	.loc 1 7 0
	movl	$0, %eax
	call	f
	.loc 1 8 0
	popq	%rbp
	.cfi_def_cfa 7, 8
	ret
	.cfi_endproc
.LFE0:
	.size	main, .-main
	.section	.rodata
.LC0:
	.string	"hello"
	.text
	.globl	f
	.type	f, @function
f:
.LFB1:
	.loc 1 11 0
	.cfi_startproc
	pushq	%rbp
	.cfi_def_cfa_offset 16
	.cfi_offset 6, -16
	movq	%rsp, %rbp
	.cfi_def_cfa_register 6
	subq	$32, %rsp
	.loc 1 12 0
	movabsq	$7523094288207667809, %rax
	movq	%rax, -32(%rbp)
	movabsq	$8101815670912281193, %rax
	movq	%rax, -24(%rbp)
	movw	$29297, -16(%rbp)
	movb	$0, -14(%rbp)
	.loc 1 13 0
	leaq	-32(%rbp), %rax
	movq	%rax, %rdi
	call	g
	.loc 1 14 0
	movl	$.LC0, %edi
	movl	$0, %eax
	call	printf
	.loc 1 15 0
	leave
	.cfi_def_cfa 7, 8
	ret
	.cfi_endproc
.LFE1:
	.size	f, .-f
	.section	.rodata
.LC1:
	.string	"%s"
	.text
	.globl	g
	.type	g, @function
g:
.LFB2:
	.loc 1 18 0
	.cfi_startproc
	pushq	%rbp
	.cfi_def_cfa_offset 16
	.cfi_offset 6, -16
	movq	%rsp, %rbp
	.cfi_def_cfa_register 6
	subq	$32, %rsp
	movq	%rdi, -24(%rbp)
	.loc 1 22 0
	movl	$0, i.2208(%rip)
	jmp	.L4
.L5:
	.loc 1 23 0 discriminator 3
	movl	i.2208(%rip), %eax
	movl	i.2208(%rip), %edx
	movslq	%edx, %rcx
	movq	-24(%rbp), %rdx
	addq	%rcx, %rdx
	movzbl	(%rdx), %edx
	cltq
	movb	%dl, -16(%rbp,%rax)
	.loc 1 22 0 discriminator 3
	movl	i.2208(%rip), %eax
	addl	$1, %eax
	movl	%eax, i.2208(%rip)
.L4:
	.loc 1 22 0 is_stmt 0 discriminator 1
	movl	i.2208(%rip), %eax
	movslq	%eax, %rdx
	movq	-24(%rbp), %rax
	addq	%rdx, %rax
	movzbl	(%rax), %eax
	testb	%al, %al
	jne	.L5
	.loc 1 25 0 is_stmt 1
	movl	i.2208(%rip), %eax
	cltq
	movb	$0, -16(%rbp,%rax)
	.loc 1 26 0
	leaq	-16(%rbp), %rax
	movq	%rax, %rsi
	movl	$.LC1, %edi
	movl	$0, %eax
	call	printf
	.loc 1 27 0
	nop
	.loc 1 28 0
	leave
	.cfi_def_cfa 7, 8
	ret
	.cfi_endproc
.LFE2:
	.size	g, .-g
	.local	i.2208
	.comm	i.2208,4,4
.Letext0:
	.section	.note.GNU-stack,"",@progbits
